EXPORTS
    _ZN3uen8Graphics6Vulkan11Application10BindWindowEPNS1_12RenderWindowE @1
    _ZN3uen8Graphics6Vulkan11Application11getInstanceEv @2
    _ZN3uen8Graphics6Vulkan11Application15findQueueFamilyEP18VkPhysicalDevice_Ty @3
    _ZN3uen8Graphics6Vulkan11Application15isInstanceValidEv @4
    _ZN3uen8Graphics6Vulkan11Application16chooseSwapExtentERK24VkSurfaceCapabilitiesKHRP10GLFWwindow @5
    _ZN3uen8Graphics6Vulkan11Application16isDeviceSuitableEP18VkPhysicalDevice_TSt6vectorIPKcSaIS7_EEy @6
    _ZN3uen8Graphics6Vulkan11Application16validationLayersE @7 DATA
    _ZN3uen8Graphics6Vulkan11Application17CreateApplicationEPKcjjjS4_ @8
    _ZN3uen8Graphics6Vulkan11Application18DestroyApplicationEv @9
    _ZN3uen8Graphics6Vulkan11Application21checkDeviceExtensionsEP18VkPhysicalDevice_TRSt6vectorIPKcSaIS7_EE @10
    _ZN3uen8Graphics6Vulkan11Application21chooseSwapPresentModeERKSt6vectorI16VkPresentModeKHRSaIS4_EE @11
    _ZN3uen8Graphics6Vulkan11Application21querySwapChainSupportEP18VkPhysicalDevice_Ty @12
    _ZN3uen8Graphics6Vulkan11Application22getPhysicalDeviceCountEv @13
    _ZN3uen8Graphics6Vulkan11Application23chooseSwapSurfaceFormatERKSt6vectorI18VkSurfaceFormatKHRSaIS4_EE @14
    _ZN3uen8Graphics6Vulkan11Application27checkValidationLayerSupportEv @15
    _ZN3uen8Graphics6Vulkan11ApplicationC1Ev @16
    _ZN3uen8Graphics6Vulkan11ApplicationC2Ev @17
    _ZN3uen8Graphics6Vulkan11ApplicationD1Ev @18
    _ZN3uen8Graphics6Vulkan11ApplicationD2Ev @19
    _ZN3uen8Graphics6Vulkan12RenderWindow6CreateEjjNSt7__cxx1112basic_stringIcSt11char_traitsIcESaIcEEEj @20
    _ZN3uen8Graphics6Vulkan12RenderWindow6CreateEjjPKcj @21
    _ZN3uen8Graphics6Vulkan12RenderWindowC1Ev @22
    _ZN3uen8Graphics6Vulkan12RenderWindowC2Ev @23
    _ZN3uen8Graphics6Vulkan7Utility21getRequiredExtensionsEv @24
    _ZN3uen8Graphics6Vulkan7Utility26getInstanceExtensionsCountEv @25
    _ZN3uen8Graphics9Universal12RenderWindow10PollEventsEv @26
    _ZN3uen8Graphics9Universal12RenderWindow11ShouldCloseEv @27
    _ZN3uen8Graphics9Universal12RenderWindow7DestroyEv @28
    _ZN3uen8Graphics9Universal12RenderWindowC1Ev @29
    _ZN3uen8Graphics9Universal12RenderWindowC2Ev @30
    _ZN3uen8Graphics9Universal12RenderWindowD1Ev @31
    _ZN3uen8Graphics9Universal12RenderWindowD2Ev @32
    _ZTIN3uen8Graphics6Vulkan11ApplicationE @33 DATA
    _ZTIN3uen8Graphics6Vulkan12RenderWindowE @34 DATA
    _ZTIN3uen8Graphics9Universal11ApplicationE @35 DATA
    _ZTIN3uen8Graphics9Universal12RenderWindowE @36 DATA
    _ZTVN3uen8Graphics6Vulkan11ApplicationE @37 DATA
    _ZTVN3uen8Graphics6Vulkan12RenderWindowE @38 DATA
    _ZTVN3uen8Graphics9Universal11ApplicationE @39 DATA
    _ZTVN3uen8Graphics9Universal12RenderWindowE @40 DATA
